; Function Attrs: mustprogress nofree norecurse nosync nounwind memory(read, argmem: readwrite, inaccessiblemem: none) uwtable
define internal fastcc noundef zeroext i1 @_ZN4absl18debugging_internalL14ParseCharClassEPNS0_5StateEPKc(ptr noundef captures(none) %0, ptr noundef readonly captures(none) %1) unnamed_addr #8 personality ptr @__gxx_personality_v0 {
  %3 = getelementptr inbounds nuw i8, ptr %0, i64 20
  %4 = load i32, ptr %3, align 4, !tbaa !17
  %5 = add nsw i32 %4, 1
  store i32 %5, ptr %3, align 4, !tbaa !17
  %6 = getelementptr inbounds nuw i8, ptr %0, i64 24
  %7 = load i32, ptr %6, align 8, !tbaa !15
  %8 = add nsw i32 %7, 1
  store i32 %8, ptr %6, align 8, !tbaa !15
  %9 = icmp sgt i32 %4, 255
  %10 = icmp sgt i32 %7, 131071
  %or.cond = select i1 %9, i1 true, i1 %10
  br i1 %or.cond, label %_ZNK4absl18debugging_internal12_GLOBAL__N_115ComplexityGuard12IsTooComplexEv.exit.thread, label %11

11:                                               ; preds = %2
  %.val14 = load ptr, ptr %0, align 8, !tbaa !7
  %12 = getelementptr i8, ptr %0, i64 28
  %.val15 = load i32, ptr %12, align 4, !tbaa !16
  %13 = sext i32 %.val15 to i64
  %14 = getelementptr inbounds i8, ptr %.val14, i64 %13
  %15 = load i8, ptr %14, align 1, !tbaa !4
  %16 = icmp eq i8 %15, 0
  br i1 %16, label %_ZNK4absl18debugging_internal12_GLOBAL__N_115ComplexityGuard12IsTooComplexEv.exit.thread, label %.preheader

.preheader:                                       ; preds = %11
  %17 = load i8, ptr %1, align 1, !tbaa !4
  %.not.not17 = icmp eq i8 %17, 0
  br i1 %.not.not17, label %_ZNK4absl18debugging_internal12_GLOBAL__N_115ComplexityGuard12IsTooComplexEv.exit.thread, label %.lr.ph

18:                                               ; preds = %.lr.ph
  %19 = getelementptr inbounds nuw i8, ptr %.018, i64 1
  %20 = load i8, ptr %19, align 1, !tbaa !4
  %.not.not = icmp eq i8 %20, 0
  br i1 %.not.not, label %_ZNK4absl18debugging_internal12_GLOBAL__N_115ComplexityGuard12IsTooComplexEv.exit.thread, label %.lr.ph, !llvm.loop !32

.lr.ph:                                           ; preds = %.preheader, %18
  %21 = phi i8 [ %20, %18 ], [ %17, %.preheader ]
  %.018 = phi ptr [ %19, %18 ], [ %1, %.preheader ]
  %22 = icmp eq i8 %15, %21
  br i1 %22, label %23, label %18

23:                                               ; preds = %.lr.ph
  %24 = add nsw i32 %.val15, 1
  store i32 %24, ptr %12, align 4, !tbaa !16
  br label %_ZNK4absl18debugging_internal12_GLOBAL__N_115ComplexityGuard12IsTooComplexEv.exit.thread

_ZNK4absl18debugging_internal12_GLOBAL__N_115ComplexityGuard12IsTooComplexEv.exit.thread: ; preds = %18, %.preheader, %2, %23, %11
  %.010 = phi i1 [ false, %11 ], [ true, %23 ], [ false, %2 ], [ false, %.preheader ], [ false, %18 ]
  store i32 %4, ptr %3, align 4, !tbaa !17
  ret i1 %.010
}